; Function Attrs: mustprogress nofree norecurse nosync nounwind willreturn memory(argmem: readwrite) uwtable
define hidden void @DES_encrypt3(ptr noundef captures(none) %0, ptr noundef %1, ptr noundef %2, ptr noundef %3) local_unnamed_addr #2 {
  %5 = load i32, ptr %0, align 4, !tbaa !9
  %6 = getelementptr inbounds nuw i8, ptr %0, i64 4
  %7 = load i32, ptr %6, align 4, !tbaa !9
  %8 = lshr i32 %7, 4
  %9 = xor i32 %8, %5
  %10 = and i32 %9, 252645135
  %11 = xor i32 %10, %5
  %12 = shl nuw i32 %10, 4
  %13 = xor i32 %12, %7
  %14 = lshr i32 %11, 16
  %.masked = and i32 %13, 65535
  %15 = xor i32 %.masked, %14
  %16 = xor i32 %15, %13
  %17 = shl nuw i32 %15, 16
  %18 = xor i32 %17, %11
  %19 = lshr i32 %16, 2
  %20 = xor i32 %19, %18
  %21 = and i32 %20, 858993459
  %22 = xor i32 %21, %18
  %23 = shl nuw i32 %21, 2
  %24 = xor i32 %23, %16
  %25 = lshr i32 %22, 8
  %26 = xor i32 %25, %24
  %27 = and i32 %26, 16711935
  %28 = xor i32 %27, %24
  %29 = shl nuw i32 %27, 8
  %30 = xor i32 %29, %22
  %31 = lshr i32 %28, 1
  %32 = xor i32 %31, %30
  %33 = and i32 %32, 1431655765
  %34 = xor i32 %33, %30
  %35 = shl nuw i32 %33, 1
  %36 = xor i32 %35, %28
  store i32 %34, ptr %0, align 4, !tbaa !9
  store i32 %36, ptr %6, align 4, !tbaa !9
  tail call fastcc void @DES_encrypt2(ptr noundef nonnull %0, ptr noundef %1, i32 noundef 1)
  tail call fastcc void @DES_encrypt2(ptr noundef nonnull %0, ptr noundef %2, i32 noundef 0)
  tail call fastcc void @DES_encrypt2(ptr noundef nonnull %0, ptr noundef %3, i32 noundef 1)
  %37 = load i32, ptr %0, align 4, !tbaa !9
  %38 = load i32, ptr %6, align 4, !tbaa !9
  %39 = lshr i32 %38, 1
  %40 = xor i32 %39, %37
  %41 = and i32 %40, 1431655765
  %42 = xor i32 %41, %37
  %43 = shl nuw i32 %41, 1
  %44 = xor i32 %43, %38
  %45 = lshr i32 %42, 8
  %46 = xor i32 %45, %44
  %47 = and i32 %46, 16711935
  %48 = xor i32 %47, %44
  %49 = shl nuw i32 %47, 8
  %50 = xor i32 %49, %42
  %51 = lshr i32 %48, 2
  %52 = xor i32 %51, %50
  %53 = and i32 %52, 858993459
  %54 = xor i32 %53, %50
  %55 = shl nuw i32 %53, 2
  %56 = xor i32 %55, %48
  %57 = lshr i32 %54, 16
  %.masked77 = and i32 %56, 65535
  %58 = xor i32 %.masked77, %57
  %59 = xor i32 %58, %56
  %60 = shl nuw i32 %58, 16
  %61 = xor i32 %60, %54
  %62 = lshr i32 %59, 4
  %63 = xor i32 %62, %61
  %64 = and i32 %63, 252645135
  %65 = xor i32 %64, %61
  %66 = shl nuw i32 %64, 4
  %67 = xor i32 %66, %59
  store i32 %65, ptr %0, align 4, !tbaa !9
  store i32 %67, ptr %6, align 4, !tbaa !9
  ret void
}